; ModuleID = 'source-C-CXX/53/868.c'
source_filename = "source-C-CXX/53/868.c"
target datalayout = "e-m:e-p270:32:32-p271:32:32-p272:64:64-i64:64-f80:128-n8:16:32:64-S128"
target triple = "x86_64-pc-linux-gnu"

@.str = private unnamed_addr constant [6 x i8] c"%d %d\00", align 1
@.str.1 = private unnamed_addr constant [3 x i8] c"%d\00", align 1

; Function Attrs: nofree nounwind sspstrong uwtable
define dso_local i32 @main() local_unnamed_addr #0 {
  %1 = alloca i32, align 4
  %2 = alloca i32, align 4
  %3 = bitcast i32* %1 to i8*
  call void @llvm.lifetime.start.p0i8(i64 4, i8* nonnull %3) #3
  %4 = bitcast i32* %2 to i8*
  call void @llvm.lifetime.start.p0i8(i64 4, i8* nonnull %4) #3
  %5 = call i32 (i8*, ...) @__isoc99_scanf(i8* getelementptr inbounds ([6 x i8], [6 x i8]* @.str, i64 0, i64 0), i32* nonnull %1, i32* nonnull %2)
  %6 = load i32, i32* %1, align 4, !tbaa !5
  %7 = load i32, i32* %2, align 4
  %8 = add nsw i32 %6, -1
  %9 = icmp slt i32 %6, 1
  br i1 %9, label %30, label %10

10:                                               ; preds = %0, %23
  %11 = phi i32 [ %27, %23 ], [ 1, %0 ]
  %12 = phi i32 [ %26, %23 ], [ 1, %0 ]
  %13 = phi i32 [ %28, %23 ], [ 1, %0 ]
  %14 = mul nsw i32 %6, %12
  %15 = add nsw i32 %7, %14
  %16 = icmp eq i32 %13, %6
  br i1 %16, label %30, label %17

17:                                               ; preds = %10
  %18 = srem i32 %15, %8
  %19 = sdiv i32 %15, %8
  %20 = icmp eq i32 %18, 0
  br i1 %20, label %23, label %21

21:                                               ; preds = %17
  %22 = add nsw i32 %11, 1
  br label %23

23:                                               ; preds = %17, %21
  %24 = phi i32 [ 0, %21 ], [ %15, %17 ]
  %25 = phi i32 [ 0, %21 ], [ %13, %17 ]
  %26 = phi i32 [ %22, %21 ], [ %19, %17 ]
  %27 = phi i32 [ %22, %21 ], [ %11, %17 ]
  %28 = add nsw i32 %25, 1
  %29 = icmp slt i32 %25, %6
  br i1 %29, label %10, label %30, !llvm.loop !9

30:                                               ; preds = %10, %23, %0
  %31 = phi i32 [ undef, %0 ], [ %15, %10 ], [ %24, %23 ]
  %32 = call i32 (i8*, ...) @printf(i8* nonnull dereferenceable(1) getelementptr inbounds ([3 x i8], [3 x i8]* @.str.1, i64 0, i64 0), i32 %31)
  call void @llvm.lifetime.end.p0i8(i64 4, i8* nonnull %4) #3
  call void @llvm.lifetime.end.p0i8(i64 4, i8* nonnull %3) #3
  ret i32 0
}

; Function Attrs: argmemonly mustprogress nofree nosync nounwind willreturn
declare void @llvm.lifetime.start.p0i8(i64 immarg, i8* nocapture) #1

; Function Attrs: nofree nounwind
declare noundef i32 @__isoc99_scanf(i8* nocapture noundef readonly, ...) local_unnamed_addr #2

; Function Attrs: nofree nounwind
declare noundef i32 @printf(i8* nocapture noundef readonly, ...) local_unnamed_addr #2

; Function Attrs: argmemonly mustprogress nofree nosync nounwind willreturn
declare void @llvm.lifetime.end.p0i8(i64 immarg, i8* nocapture) #1


!llvm.module.flags = !{!0, !1, !2, !3}
!llvm.ident = !{!4}

!0 = !{i32 1, !"wchar_size", i32 4}
!1 = !{i32 7, !"PIC Level", i32 2}
!2 = !{i32 7, !"PIE Level", i32 2}
!3 = !{i32 7, !"uwtable", i32 1}
!4 = !{!"clang version 13.0.0"}
!5 = !{!6, !6, i64 0}
!6 = !{!"int", !7, i64 0}
!7 = !{!"omnipotent char", !8, i64 0}
!8 = !{!"Simple C/C++ TBAA"}
!9 = distinct !{!9, !10}
!10 = !{!"llvm.loop.mustprogress"}
